target datalayout = "e-m:e-p270:32:32-p271:32:32-p272:64:64-i64:64-i128:128-f80:128-n8:16:32:64-S128"
target triple = "x86_64-pc-linux-gnu"

%"class.std::basic_string_view" = type { i64, ptr }
%"struct.toml::v3::impl::formatter_config" = type { i64, %"class.std::basic_string_view" }
%"class.toml::v3::impl::formatter" = type <{ ptr, ptr, %"struct.toml::v3::impl::formatter_config", i64, i64, ptr, i32, i8, [3 x i8] }>

; Function Attrs: mustprogress uwtable
define void @_ZN4toml2v34impl15print_to_streamERSoc(ptr noundef nonnull align 8 dereferenceable(8) %0, i8 noundef signext %1) #0 {
  %3 = alloca ptr, align 8
  %4 = alloca i8, align 1
  store ptr %0, ptr %3, align 8, !tbaa !3
  store i8 %1, ptr %4, align 1, !tbaa !22
  %5 = load ptr, ptr %3, align 8, !tbaa !3
  %6 = load i8, ptr %4, align 1, !tbaa !22
  %7 = call noundef nonnull align 8 dereferenceable(8) ptr @_ZNSo3putEc(ptr noundef nonnull align 8 dereferenceable(8) %5, i8 noundef signext %6)
  ret void
}

; Function Attrs: mustprogress uwtable
define void @_ZN4toml2v34impl9formatter13print_newlineEb(ptr noundef nonnull align 8 dereferenceable(69) %0, i1 noundef zeroext %1) #0 align 2 {
  %3 = alloca ptr, align 8
  %4 = alloca i8, align 1
  store ptr %0, ptr %3, align 8, !tbaa !374
  %5 = zext i1 %1 to i8
  store i8 %5, ptr %4, align 1, !tbaa !67
  %6 = load ptr, ptr %3, align 8
  %7 = getelementptr inbounds nuw %"class.toml::v3::impl::formatter", ptr %6, i32 0, i32 7
  %8 = load i8, ptr %7, align 4, !tbaa !389, !range !69, !noundef !70
  %9 = trunc i8 %8 to i1
  br i1 %9, label %10, label %13

10:                                               ; preds = %2
  %11 = load i8, ptr %4, align 1, !tbaa !67, !range !69, !noundef !70
  %12 = trunc i8 %11 to i1
  br i1 %12, label %13, label %17

13:                                               ; preds = %10, %2
  %14 = getelementptr inbounds nuw %"class.toml::v3::impl::formatter", ptr %6, i32 0, i32 5
  %15 = load ptr, ptr %14, align 8, !tbaa !390
  call void @_ZN4toml2v34impl15print_to_streamERSoc(ptr noundef nonnull align 8 dereferenceable(8) %15, i8 noundef signext 10)
  %16 = getelementptr inbounds nuw %"class.toml::v3::impl::formatter", ptr %6, i32 0, i32 7
  store i8 1, ptr %16, align 4, !tbaa !389
  br label %17

17:                                               ; preds = %13, %10
  ret void
}