; Function Attrs: mustprogress uwtable
define void @_ZN4toml2v34impl9formatter13print_newlineEb(ptr noundef nonnull align 8 captures(none) dereferenceable(69) %0, i1 noundef zeroext %1) local_unnamed_addr #0 align 2 {
  %3 = getelementptr inbounds nuw i8, ptr %0, i64 68
  %4 = load i8, ptr %3, align 4, !tbaa !120, !range !95, !noundef !96
  %5 = trunc nuw i8 %4 to i1
  %.not = xor i1 %5, true
  %brmerge = or i1 %1, %.not
  br i1 %brmerge, label %6, label %10

6:                                                ; preds = %2
  %7 = getelementptr inbounds nuw i8, ptr %0, i64 56
  %8 = load ptr, ptr %7, align 8, !tbaa !121
  %9 = tail call noundef nonnull align 8 dereferenceable(8) ptr @_ZNSo3putEc(ptr noundef nonnull align 8 dereferenceable(8) %8, i8 noundef signext 10)
  store i8 1, ptr %3, align 4, !tbaa !120
  br label %10

10:                                               ; preds = %2, %6
  ret void
}